; Function Attrs: nofree norecurse nosync nounwind memory(argmem: readwrite) uwtable
define hidden void @av1_iidentity8_c(ptr nocapture noundef readonly %0, ptr nocapture noundef writeonly %1, i8 noundef signext %2, ptr nocapture noundef readnone %3) local_unnamed_addr #3 {
  br label %5

5:                                                ; preds = %4, %5
  %indvars.iv = phi i64 [ 0, %4 ], [ %indvars.iv.next, %5 ]
  %6 = getelementptr inbounds i32, ptr %0, i64 %indvars.iv
  %7 = load i32, ptr %6, align 4
  %8 = shl i32 %7, 1
  %9 = getelementptr inbounds i32, ptr %1, i64 %indvars.iv
  store i32 %8, ptr %9, align 4
  %indvars.iv.next = add nuw nsw i64 %indvars.iv, 1
  %exitcond.not = icmp eq i64 %indvars.iv.next, 8
  br i1 %exitcond.not, label %10, label %5, !llvm.loop !6

10:                                               ; preds = %5
  ret void
}